ccollections
OrderedDict
p0
((lp1
(lp2
S'lumi'
p3
aF3.2
aa(lp4
S'ananame'
p5
aS'atlas_1605_03814'
p6
aa(lp7
S'SR'
p8
ag0
((lp9
(lp10
S'2jl'
p11
a(dp12
S'p0'
p13
F0.5
sS'Nobs'
p14
F263.0
sS'S95_exp'
p15
F54.0
sS'S95_obs'
p16
F44.0
sS'Nbkg'
p17
F283.0
sS'Nbkg_err'
p18
F24.0
saa(lp19
S'2jm'
p20
a(dp21
g13
F0.5
sg14
F191.0
sg15
F48.0
sg16
F48.0
sg17
F191.0
sg18
F21.0
saa(lp22
S'2jt'
p23
a(dp24
g13
F0.4
sg14
F26.0
sg15
F14.0
sg16
F17.0
sg17
F23.0
sg18
F4.0
saa(lp25
S'4jt'
p26
a(dp27
g13
F0.17
sg14
F7.0
sg15
F6.3
sg16
F8.7
sg17
F4.6
sg18
F1.1
saa(lp28
S'5j'
p29
a(dp30
g13
F0.5
sg14
F7.0
sg15
F8.7
sg16
F5.4
sg17
F13.2
sg18
F2.2
saa(lp31
S'6jm'
p32
a(dp33
g13
F0.5
sg14
I5
sg15
F6.6
sg16
F5.4
sg17
F6.9
sg18
F1.5
saa(lp34
S'6jt'
p35
a(dp36
g13
F0.5
sg14
I3
sg15
F5.7
sg16
F5.0
sg17
F4.2
sg18
F1.2
saatp37
Rp38
aatp39
Rp40
.