ccollections
OrderedDict
p0
((lp1
(lp2
S'lumi'
p3
aF14.8
aa(lp4
S'ananame'
p5
aS'atlas_conf_2016_054'
p6
aa(lp7
S'SR'
p8
ag0
((lp9
(lp10
S'GG6J_bulk'
p11
a(dp12
S'p0'
p13
F0.11
sS'Nobs'
p14
F32.0
sS'S95_exp'
p15
F14.7
sS'S95_obs'
p16
F22.1
sS'Nbkg'
p17
F24.0
sS'Nbkg_err'
p18
F5.0
saatp19
Rp20
aatp21
Rp22
.