ccollections
OrderedDict
p0
((lp1
(lp2
S'lumi'
p3
aF3.2
aa(lp4
S'ananame'
p5
aS'atlas_1605_04285'
p6
aa(lp7
S'SR'
p8
ag0
((lp9
(lp10
S'2js'
p11
a(dp12
S'p0'
p13
F0.5
sS'Nobs'
p14
F2.0
sS'S95_exp'
p15
F5.3
sS'S95_obs'
p16
F4.3
sS'Nbkg'
p17
F3.6
sS'Nbkg_err'
p18
F0.7
saa(lp19
S'5js'
p20
a(dp21
g13
F0.34
sg14
F9.0
sg15
F8.1
sg16
F9.3
sg17
F7.7
sg18
F1.9
saa(lp22
S'4jl'
p23
a(dp24
g13
F0.5
sg14
F1.0
sg15
F4.1
sg16
F3.9
sg17
F1.3
sg18
F0.5
saa(lp25
S'4jh'
p26
a(dp27
g13
F0.5
sg14
F0.0
sg15
F2.9
sg16
F2.8
sg17
F0.9
sg18
F0.5
saa(lp28
S'5jh'
p29
a(dp30
g13
F0.5
sg14
F0.0
sg15
F3.5
sg16
F2.8
sg17
F1.3
sg18
F0.6
saa(lp31
S'6jh'
p32
a(dp33
g13
F0.02
sg14
F10.0
sg15
F6.5
sg16
F12.5
sg17
F4.4
sg18
F1.0
saatp34
Rp35
aatp36
Rp37
.