ccollections
OrderedDict
p0
((lp1
(lp2
S'lumi'
p3
aF36.1
aa(lp4
S'ananame'
p5
aS'atlas_1706_03731'
p6
aa(lp7
S'SR'
p8
ag0
((lp9
(lp10
S'Rpc2L2bS'
p11
a(dp12
S'p0'
p13
F0.71
sS'Nobs'
p14
F3.0
sS'S95_exp'
p15
F5.6
sS'S95_obs'
p16
F5.5
sS'Nbkg'
p17
F3.3
sS'Nbkg_err'
p18
F1.0
saa(lp19
S'Rpc3L0bH'
p20
a(dp21
g13
F0.85
sg14
F3.0
sg15
F5.5
sg16
F5.4
sg17
F3.3
sg18
F0.8
saa(lp22
S'Rpc2Lsoft1b'
p23
a(dp24
g13
F0.69
sg14
F4.0
sg15
F7.1
sg16
F6.3
sg17
F5.8
sg18
F2.5
saa(lp25
S'Rpc2Lsoft2b'
p26
a(dp27
g13
F0.3
sg14
F5.0
sg15
F6.2
sg16
F7.7
sg17
F3.8
sg18
F1.6
saa(lp28
S'Rpc2L0bS'
p29
a(dp30
g13
F0.36
sg14
F7.0
sg15
F7.5
sg16
F8.3
sg17
F6.0
sg18
F1.8
saa(lp31
S'Rpc2L0bH'
p32
a(dp33
g13
F0.35
sg14
F3.0
sg15
F5.3
sg16
F6.1
sg17
F2.4
sg18
F1.0
saa(lp34
S'Rpc3L0bS'
p35
a(dp36
g13
F0.72
sg14
F9.0
sg15
F9.3
sg16
F8.3
sg17
F11.0
sg18
F3.0
saa(lp37
S'Rpc3L1bS'
p38
a(dp39
g13
F0.32
sg14
F20.0
sg15
F12.6
sg16
F14.7
sg17
F17.0
sg18
F4.0
saa(lp40
S'Rpc3L1bH'
p41
a(dp42
g13
F0.38
sg14
F4.0
sg15
F5.9
sg16
F6.1
sg17
F3.9
sg18
F0.9
saa(lp43
S'Rpc2L1bS'
p44
a(dp45
g13
F0.17
sg14
F14.0
sg15
F10.0
sg16
F13.7
sg17
F9.8
sg18
F2.9
saa(lp46
S'Rpc2L1bH'
p47
a(dp48
g13
F0.21
sg14
F13.0
sg15
F9.7
sg16
F12.4
sg17
F9.8
sg18
F2.6
saa(lp49
S'Rpc3LSS1b'
p50
a(dp51
g13
F0.56
sg14
F1.0
sg15
F4.0
sg16
F3.9
sg17
F1.6
sg18
F0.8
saatp52
Rp53
aatp54
Rp55
.