ccollections
OrderedDict
p0
((lp1
(lp2
S'lumi'
p3
aF3.2
aa(lp4
S'ananame'
p5
aS'atlas_1605_03814'
p6
aa(lp7
S'SR'
p8
ag0
((lp9
(lp10
S'2jl'
p11
a(dp12
S'Nobs'
p13
F263.0
sS'Nbkg'
p14
F283.0
sS'Nbkg_err'
p15
F24.0
saa(lp16
S'2jm'
p17
a(dp18
g13
F191.0
sg14
F191.0
sg15
F21.0
saa(lp19
S'2jt'
p20
a(dp21
g13
F26.0
sg14
F23.0
sg15
F4.0
saa(lp22
S'4jt'
p23
a(dp24
g13
F7.0
sg14
F4.6
sg15
F1.1
saa(lp25
S'5j'
p26
a(dp27
g13
F7.0
sg14
F13.2
sg15
F2.2
saa(lp28
S'6jm'
p29
a(dp30
g13
I5
sg14
F6.9
sg15
F1.5
saa(lp31
S'6jt'
p32
a(dp33
g13
I3
sg14
F4.2
sg15
F1.2
saatp34
Rp35
aatp36
Rp37
.