ccollections
OrderedDict
p0
((lp1
(lp2
S'lumi'
p3
aF13.2
aa(lp4
S'ananame'
p5
aS'atlas_conf_2016_037'
p6
aa(lp7
S'SR'
p8
ag0
((lp9
(lp10
S'3L1'
p11
a(dp12
S'p0'
p13
F0.5
sS'Nobs'
p14
F6.0
sS'S95_exp'
p15
F7.6
sS'S95_obs'
p16
F7.8
sS'Nbkg'
p17
F6.1
sS'Nbkg_err'
p18
F2.2
saa(lp19
S'3L2'
p20
a(dp21
g13
F0.5
sg14
F2.0
sg15
F4.0
sg16
F5.1
sg17
F1.2
sg18
F0.5
saa(lp22
S'0b1'
p23
a(dp24
g13
F0.5
sg14
F5.0
sg15
F7.9
sg16
F6.2
sg17
F8.8
sg18
F2.9
saa(lp25
S'0b2'
p26
a(dp27
g13
F0.5
sg14
F0.0
sg15
F3.9
sg16
F3.2
sg17
F1.6
sg18
F0.8
saa(lp28
S'1b'
p29
a(dp30
g13
F0.5
sg14
F12.0
sg15
F9.7
sg16
F10.3
sg17
F11.4
sg18
F2.8
saa(lp31
S'3b'
p32
a(dp33
g13
F0.5
sg14
F2.0
sg15
F4.2
sg16
F4.9
sg17
F1.6
sg18
F0.6
saa(lp34
S'1b-GG'
p35
a(dp36
g13
F0.5
sg14
F2.0
sg15
F4.1
sg16
F4.8
sg17
F1.7
sg18
F0.5
saa(lp37
S'1b-DD'
p38
a(dp39
g13
F0.5
sg14
F12.0
sg15
F9.8
sg16
F9.9
sg17
F12.0
sg18
F2.7
saa(lp40
S'3b-DD'
p41
a(dp42
g13
F0.5
sg14
F4.0
sg15
F4.7
sg16
F7.4
sg17
F1.9
sg18
F0.8
saatp43
Rp44
aatp45
Rp46
.