ccollections
OrderedDict
p0
((lp1
(lp2
S'lumi'
p3
aF36.1
aa(lp4
S'ananame'
p5
aS'atlas_conf_2017_035'
p6
aa(lp7
S'SR'
p8
ag0
((lp9
(lp10
S'lowMass'
p11
a(dp12
S'p0'
p13
F0.5
sS'Nobs'
p14
F10.0
sS'S95_exp'
p15
F0.31
sS'S95_obs'
p16
F0.26
sS'Nbkg'
p17
F14.0
sS'Nbkg_err'
p18
F6.0
saa(lp19
S'highMass'
p20
a(dp21
g13
F0.3
sg14
F5.0
sg15
F0.17
sg16
F0.2
sg17
F3.7
sg18
F1.4
saatp22
Rp23
aatp24
Rp25
.