ccollections
OrderedDict
p0
((lp1
(lp2
S'lumi'
p3
aF36.1
aa(lp4
S'ananame'
p5
aS'atlas_conf_2017_039'
p6
aa(lp7
S'SRa'
p8
ag0
((lp9
(lp10
S'SFa'
p11
a(dp12
S'Nobs'
p13
F56.0
sS'Nbkg'
p14
F47.0
sS'Nbkg_err'
p15
F12.0
saa(lp16
S'SFb'
p17
a(dp18
g13
F28.0
sg14
F25.0
sg15
F5.0
saa(lp19
S'SFc'
p20
a(dp21
g13
F19.0
sg14
F25.0
sg15
F4.0
saa(lp22
S'SFd'
p23
a(dp24
g13
F13.0
sg14
F14.0
sg15
F7.0
saa(lp25
S'SFe'
p26
a(dp27
g13
F10.0
sg14
F5.2
sg15
F1.4
saa(lp28
S'SFf'
p29
a(dp30
g13
F6.0
sg14
F1.9
sg15
F1.2
saa(lp31
S'SFg'
p32
a(dp33
g13
F6.0
sg14
F3.8
sg15
F1.9
saa(lp34
S'SFh'
p35
a(dp36
g13
F0.0
sg14
F3.1
sg15
F1.0
saa(lp37
S'SFi'
p38
a(dp39
g13
F1.0
sg14
F1.9
sg15
F0.9
saa(lp40
S'SFj'
p41
a(dp42
g13
F3.0
sg14
F1.6
sg15
F0.5
saa(lp43
S'SFk'
p44
a(dp45
g13
F2.0
sg14
F1.5
sg15
F0.6
saa(lp46
S'SFl'
p47
a(dp48
g13
F2.0
sg14
F1.8
sg15
F0.8
saa(lp49
S'SFm'
p50
a(dp51
g13
F7.0
sg14
F2.6
sg15
F0.9
saa(lp52
S'SFloose'
p53
a(dp54
g13
F153.0
sg14
F133.0
sg15
F22.0
saa(lp55
S'SFtight'
p56
a(dp57
g13
F9.0
sg14
F9.8
sg15
F2.9
saa(lp58
S'DFa'
p59
a(dp60
g13
F67.0
sg14
F57.0
sg15
F7.0
saa(lp61
S'DFb'
p62
a(dp63
g13
F5.0
sg14
F9.6
sg15
F1.9
saa(lp64
S'DFc'
p65
a(dp66
g13
F4.0
sg14
F1.5
sg15
F1.6
saa(lp67
S'DFd'
p68
a(dp69
g13
F2.0
sg14
F0.6
sg15
F0.6
saa(lp70
S'DF100'
p71
a(dp72
g13
F78.0
sg14
F68.0
sg15
F7.0
saa(lp73
S'DF150'
p74
a(dp75
g13
F11.0
sg14
F11.5
sg15
F3.1
saa(lp76
S'DF200'
p77
a(dp78
g13
F6.0
sg14
F2.1
sg15
F1.9
saa(lp79
S'DF300'
p80
a(dp81
g13
F2.0
sg14
F0.6
sg15
F0.6
saatp82
Rp83
aa(lp84
S'SRb'
p85
ag0
((lp86
(lp87
S'slepa'
p88
a(dp89
g13
F4.0
sg14
F2.23
sg15
F0.79
saa(lp90
S'slepb'
p91
a(dp92
g13
F3.0
sg14
F2.79
sg15
F0.43
saa(lp93
S'slepc'
p94
a(dp95
g13
F9.0
sg14
F5.41
sg15
F0.93
saa(lp96
S'slepd'
p97
a(dp98
g13
F0.0
sg14
F1.42
sg15
F0.38
saa(lp99
S'slepe'
p100
a(dp101
g13
F0.0
sg14
F1.14
sg15
F0.23
saatp102
Rp103
aa(lp104
S'SRc'
p105
ag0
((lp106
(lp107
g11
ag12
aa(lp108
g17
ag18
aa(lp109
g20
ag21
aa(lp110
g23
ag24
aa(lp111
g26
ag27
aa(lp112
g29
ag30
aa(lp113
g32
ag33
aa(lp114
g35
ag36
aa(lp115
g38
ag39
aa(lp116
g41
ag42
aa(lp117
g44
ag45
aa(lp118
g47
ag48
aa(lp119
g50
ag51
aa(lp120
g53
ag54
aa(lp121
g56
ag57
aatp122
Rp123
aa(lp124
S'SRd'
p125
ag0
((lp126
(lp127
S'int'
p128
a(dp129
S'p0'
p130
F0.0
sg13
F2.0
sS'S95_exp'
p131
F5.79403266468613
sS'S95_obs'
p132
F0.0
sg14
F4.1
sg15
F2.6
saa(lp133
S'high'
p134
a(dp135
g130
F0.0
sg13
F0.0
sg131
F4.024942430118519
sg132
F0.0
sg14
F1.6
sg15
F1.6
saa(lp136
S'low'
p137
a(dp138
g130
F0.0
sg13
F11.0
sg131
F6.759691941275508
sg132
F0.0
sg14
F4.2
sg15
F3.8
saatp139
Rp140
aa(lp141
S'SRe'
p142
ag0
((lp143
(lp144
S'WZ0Ja'
p145
a(dp146
g13
F21.0
sg14
F21.74
sg15
F2.85
saa(lp147
S'WZ0Jb'
p148
a(dp149
g13
F1.0
sg14
F2.68
sg15
F0.46
saa(lp150
S'WZ0Jc'
p151
a(dp152
g13
F2.0
sg14
F1.56
sg15
F0.33
saa(lp153
S'WZ1Ja'
p154
a(dp155
g13
F1.0
sg14
F2.21
sg15
F0.53
saa(lp156
S'WZ1Jb'
p157
a(dp158
g13
F3.0
sg14
F1.82
sg15
F0.26
saa(lp159
S'WZ1Jc'
p160
a(dp161
g13
F4.0
sg14
F1.26
sg15
F0.34
saatp162
Rp163
aatp164
Rp165
.