ccollections
OrderedDict
p0
((lp1
(lp2
S'lumi'
p3
aF13.3
aa(lp4
S'ananame'
p5
aS'atlas_conf_2016_096'
p6
aa(lp7
S'SR'
p8
ag0
((lp9
(lp10
S'2lASF'
p11
a(dp12
S'p0'
p13
F0.17
sS'Nobs'
p14
F56.0
sS'S95_exp'
p15
I35
sS'S95_obs'
p16
F25.1
sS'Nbkg'
p17
F70.0
sS'Nbkg_err'
p18
F12.0
saa(lp19
S'2lADF'
p20
a(dp21
g13
F0.17
sg14
F55.0
sg15
I35
sg16
F25.1
sg17
F57.6
sg18
F8.5
saa(lp22
S'2lBSF'
p23
a(dp24
g13
F0.41
sg14
F19.0
sg15
F17.0
sg16
F16.5
sg17
F20.7
sg18
F5.0
saa(lp25
S'2lBDF'
p26
a(dp27
g13
F0.41
sg14
F8.0
sg15
F17.0
sg16
F16.5
sg17
F8.5
sg18
F3.6
saa(lp28
S'2lCSF'
p29
a(dp30
g13
F0.36
sg14
F9.0
sg15
F12.7
sg16
F11.6
sg17
F10.2
sg18
F3.3
saa(lp31
S'2lCDF'
p32
a(dp33
g13
F0.36
sg14
F2.0
sg15
F12.7
sg16
F11.6
sg17
F3.1
sg18
F2.3
saa(lp34
S'3lI'
p35
a(dp36
g13
F0.16
sg14
F2.0
sg15
F5.5
sg16
F3.7
sg17
F4.41
sg18
F1.14
saa(lp37
S'3lH'
p38
a(dp39
g13
F0.22
sg14
F0.0
sg15
F3.4
sg16
F3.0
sg17
F0.98
sg18
F0.5
saatp40
Rp41
aatp42
Rp43
.