ccollections
OrderedDict
p0
((lp1
(lp2
S'lumi'
p3
aF14.8
aa(lp4
S'ananame'
p5
aS'atlas_conf_2016_093'
p6
aa(lp7
S'SR'
p8
ag0
((lp9
(lp10
S'C1C1'
p11
a(dp12
S'p0'
p13
F0.28
sS'Nobs'
p14
F3.0
sS'S95_exp'
p15
F6.087878787878787
sS'S95_obs'
p16
F4.9
sS'Nbkg'
p17
F5.1
sS'Nbkg_err'
p18
F2.0
saa(lp19
S'C1N2'
p20
a(dp21
g13
F0.22
sg14
F3.0
sg15
F6.315625
sg16
F4.7
sg17
F5.9
sg18
F2.1
saatp22
Rp23
aatp24
Rp25
.