ccollections
OrderedDict
p0
((lp1
(lp2
S'lumi'
p3
aF3.2
aa(lp4
S'ananame'
p5
aS'atlas_1602_09058'
p6
aa(lp7
S'SR'
p8
ag0
((lp9
(lp10
S'0b3j'
p11
a(dp12
S'p0'
p13
F0.13
sS'Nobs'
p14
F3.0
sS'S95_exp'
p15
F4.1
sS'S95_obs'
p16
F5.9
sS'Nbkg'
p17
F1.5
sS'Nbkg_err'
p18
F0.4
saa(lp19
S'0b5j'
p20
a(dp21
g13
F0.04
sg14
F3.0
sg15
F3.6
sg16
F6.4
sg17
F0.88
sg18
F0.29
saa(lp22
S'1b'
p23
a(dp24
g13
F0.15
sg14
F7.0
sg15
F6.0
sg16
F8.8
sg17
F4.5
sg18
F1.0
saa(lp25
S'3b'
p26
a(dp27
g13
F0.36
sg14
F1.0
sg15
F3.7
sg16
F3.8
sg17
F0.8
sg18
F0.25
saatp28
Rp29
aatp30
Rp31
.