ccollections
OrderedDict
p0
((lp1
(lp2
S'lumi'
p3
aF35.9
aa(lp4
S'ananame'
p5
aS'cms_1705_04650'
p6
aa(lp7
S'SR'
p8
ag0
((lp9
(lp10
S'1j0b_bin1'
p11
a(dp12
aa(lp13
S'1j0b_bin2'
p14
a(dp15
aa(lp16
S'1j0b_bin3'
p17
a(dp18
aa(lp19
S'1j0b_bin4'
p20
a(dp21
aa(lp22
S'1j0b_bin5'
p23
a(dp24
aa(lp25
S'1j0b_bin6'
p26
a(dp27
aa(lp28
S'1j0b_bin7'
p29
a(dp30
aa(lp31
S'1j1b_bin1'
p32
a(dp33
aa(lp34
S'1j1b_bin2'
p35
a(dp36
aa(lp37
S'1j1b_bin3'
p38
a(dp39
aa(lp40
S'1j1b_bin4'
p41
a(dp42
aa(lp43
S'1j1b_bin5'
p44
a(dp45
aa(lp46
S'vlHT_2j0b_bin1'
p47
a(dp48
aa(lp49
S'vlHT_2j1b_bin1'
p50
a(dp51
aa(lp52
S'vlHT_2j2b_bin1'
p53
a(dp54
aa(lp55
S'vlHT_2j3b_bin1'
p56
a(dp57
aa(lp58
S'vlHT_4j0b_bin1'
p59
a(dp60
aa(lp61
S'vlHT_4j1b_bin1'
p62
a(dp63
aa(lp64
S'vlHT_4j2b_bin1'
p65
a(dp66
aa(lp67
S'vlHT_2j0b_bin2'
p68
a(dp69
aa(lp70
S'vlHT_2j1b_bin2'
p71
a(dp72
aa(lp73
S'vlHT_2j2b_bin2'
p74
a(dp75
aa(lp76
S'vlHT_2j3b_bin2'
p77
a(dp78
aa(lp79
S'vlHT_4j0b_bin2'
p80
a(dp81
aa(lp82
S'vlHT_4j1b_bin2'
p83
a(dp84
aa(lp85
S'vlHT_4j2b_bin2'
p86
a(dp87
aa(lp88
S'vlHT_2j0b_bin3'
p89
a(dp90
aa(lp91
S'vlHT_2j1b_bin3'
p92
a(dp93
aa(lp94
S'vlHT_2j2b_bin3'
p95
a(dp96
aa(lp97
S'vlHT_2j3b_bin3'
p98
a(dp99
aa(lp100
S'vlHT_4j0b_bin3'
p101
a(dp102
aa(lp103
S'vlHT_4j1b_bin3'
p104
a(dp105
aa(lp106
S'vlHT_4j2b_bin3'
p107
a(dp108
aa(lp109
S'lHT_2j0b_bin1'
p110
a(dp111
aa(lp112
S'lHT_2j1b_bin1'
p113
a(dp114
aa(lp115
S'lHT_2j2b_bin1'
p116
a(dp117
aa(lp118
S'lHT_2j3b_bin1'
p119
a(dp120
aa(lp121
S'lHT_4j0b_bin1'
p122
a(dp123
aa(lp124
S'lHT_4j1b_bin1'
p125
a(dp126
aa(lp127
S'lHT_4j2b_bin1'
p128
a(dp129
aa(lp130
S'lHT_2j0b_bin2'
p131
a(dp132
aa(lp133
S'lHT_2j1b_bin2'
p134
a(dp135
aa(lp136
S'lHT_2j2b_bin2'
p137
a(dp138
aa(lp139
S'lHT_2j3b_bin2'
p140
a(dp141
aa(lp142
S'lHT_4j0b_bin2'
p143
a(dp144
aa(lp145
S'lHT_4j1b_bin2'
p146
a(dp147
aa(lp148
S'lHT_4j2b_bin2'
p149
a(dp150
aa(lp151
S'lHT_2j0b_bin3'
p152
a(dp153
aa(lp154
S'lHT_2j1b_bin3'
p155
a(dp156
aa(lp157
S'lHT_2j2b_bin3'
p158
a(dp159
aa(lp160
S'lHT_2j3b_bin3'
p161
a(dp162
aa(lp163
S'lHT_4j0b_bin3'
p164
a(dp165
aa(lp166
S'lHT_4j1b_bin3'
p167
a(dp168
aa(lp169
S'lHT_4j2b_bin3'
p170
a(dp171
aa(lp172
S'lHT_2j0b_bin4'
p173
a(dp174
aa(lp175
S'lHT_2j1b_bin4'
p176
a(dp177
aa(lp178
S'lHT_2j2b_bin4'
p179
a(dp180
aa(lp181
S'lHT_2j3b_bin4'
p182
a(dp183
aa(lp184
S'lHT_4j0b_bin4'
p185
a(dp186
aa(lp187
S'lHT_4j1b_bin4'
p188
a(dp189
aa(lp190
S'lHT_4j2b_bin4'
p191
a(dp192
aa(lp193
S'lHT_7j0b_bin1'
p194
a(dp195
aa(lp196
S'lHT_7j1b_bin1'
p197
a(dp198
aa(lp199
S'lHT_7j2b_bin1'
p200
a(dp201
aa(lp202
S'lHT_7j3b_bin1'
p203
a(dp204
aa(lp205
S'lHT_7j0b_bin2'
p206
a(dp207
aa(lp208
S'lHT_7j1b_bin2'
p209
a(dp210
aa(lp211
S'lHT_7j2b_bin2'
p212
a(dp213
aa(lp214
S'lHT_7j3b_bin2'
p215
a(dp216
aa(lp217
S'lHT_7j0b_bin3'
p218
a(dp219
aa(lp220
S'lHT_7j1b_bin3'
p221
a(dp222
aa(lp223
S'lHT_7j2b_bin3'
p224
a(dp225
aa(lp226
S'lHT_7j3b_bin3'
p227
a(dp228
aa(lp229
S'mHT_2j0b_bin1'
p230
a(dp231
aa(lp232
S'mHT_2j1b_bin1'
p233
a(dp234
aa(lp235
S'mHT_2j2b_bin1'
p236
a(dp237
aa(lp238
S'mHT_4j0b_bin1'
p239
a(dp240
aa(lp241
S'mHT_4j1b_bin1'
p242
a(dp243
aa(lp244
S'mHT_4j2b_bin1'
p245
a(dp246
aa(lp247
S'mHT_7j0b_bin1'
p248
a(dp249
aa(lp250
S'mHT_2j0b_bin2'
p251
a(dp252
aa(lp253
S'mHT_2j1b_bin2'
p254
a(dp255
aa(lp256
S'mHT_2j2b_bin2'
p257
a(dp258
aa(lp259
S'mHT_4j0b_bin2'
p260
a(dp261
aa(lp262
S'mHT_4j1b_bin2'
p263
a(dp264
aa(lp265
S'mHT_4j2b_bin2'
p266
a(dp267
aa(lp268
S'mHT_7j0b_bin2'
p269
a(dp270
aa(lp271
S'mHT_2j0b_bin3'
p272
a(dp273
aa(lp274
S'mHT_2j1b_bin3'
p275
a(dp276
aa(lp277
S'mHT_2j2b_bin3'
p278
a(dp279
aa(lp280
S'mHT_4j0b_bin3'
p281
a(dp282
aa(lp283
S'mHT_4j1b_bin3'
p284
a(dp285
aa(lp286
S'mHT_4j2b_bin3'
p287
a(dp288
aa(lp289
S'mHT_7j0b_bin3'
p290
a(dp291
aa(lp292
S'mHT_2j0b_bin4'
p293
a(dp294
aa(lp295
S'mHT_2j1b_bin4'
p296
a(dp297
aa(lp298
S'mHT_2j2b_bin4'
p299
a(dp300
aa(lp301
S'mHT_4j0b_bin4'
p302
a(dp303
aa(lp304
S'mHT_4j1b_bin4'
p305
a(dp306
aa(lp307
S'mHT_4j2b_bin4'
p308
a(dp309
aa(lp310
S'mHT_7j0b_bin4'
p311
a(dp312
aa(lp313
S'mHT_2j0b_bin5'
p314
a(dp315
aa(lp316
S'mHT_2j1b_bin5'
p317
a(dp318
aa(lp319
S'mHT_2j2b_bin5'
p320
a(dp321
aa(lp322
S'mHT_4j0b_bin5'
p323
a(dp324
aa(lp325
S'mHT_4j1b_bin5'
p326
a(dp327
aa(lp328
S'mHT_4j2b_bin5'
p329
a(dp330
aa(lp331
S'mHT_7j0b_bin5'
p332
a(dp333
aa(lp334
S'mHT_7j1b_bin1'
p335
a(dp336
aa(lp337
S'mHT_2j3b_bin1'
p338
a(dp339
aa(lp340
S'mHT_7j2b_bin1'
p341
a(dp342
aa(lp343
S'mHT_7j3b_bin1'
p344
a(dp345
aa(lp346
S'mHT_7j1b_bin2'
p347
a(dp348
aa(lp349
S'mHT_2j3b_bin2'
p350
a(dp351
aa(lp352
S'mHT_7j2b_bin2'
p353
a(dp354
aa(lp355
S'mHT_7j3b_bin2'
p356
a(dp357
aa(lp358
S'mHT_7j1b_bin3'
p359
a(dp360
aa(lp361
S'mHT_2j3b_bin3'
p362
a(dp363
aa(lp364
S'mHT_7j2b_bin3'
p365
a(dp366
aa(lp367
S'mHT_7j3b_bin3'
p368
a(dp369
aa(lp370
S'mHT_7j1b_bin4'
p371
a(dp372
aa(lp373
S'mHT_2j3b_bin4'
p374
a(dp375
aa(lp376
S'mHT_7j2b_bin4'
p377
a(dp378
aa(lp379
S'mHT_7j3b_bin4'
p380
a(dp381
aa(lp382
S'hHT_2j0b_bin1'
p383
a(dp384
aa(lp385
S'hHT_4j0b_bin1'
p386
a(dp387
aa(lp388
S'hHT_2j1b_bin1'
p389
a(dp390
aa(lp391
S'hHT_4j1b_bin1'
p392
a(dp393
aa(lp394
S'hHT_2j0b_bin2'
p395
a(dp396
aa(lp397
S'hHT_4j0b_bin2'
p398
a(dp399
aa(lp400
S'hHT_2j1b_bin2'
p401
a(dp402
aa(lp403
S'hHT_4j1b_bin2'
p404
a(dp405
aa(lp406
S'hHT_2j0b_bin3'
p407
a(dp408
aa(lp409
S'hHT_4j0b_bin3'
p410
a(dp411
aa(lp412
S'hHT_2j1b_bin3'
p413
a(dp414
aa(lp415
S'hHT_4j1b_bin3'
p416
a(dp417
aa(lp418
S'hHT_2j0b_bin4'
p419
a(dp420
aa(lp421
S'hHT_4j0b_bin4'
p422
a(dp423
aa(lp424
S'hHT_2j1b_bin4'
p425
a(dp426
aa(lp427
S'hHT_4j1b_bin4'
p428
a(dp429
aa(lp430
S'hHT_2j0b_bin5'
p431
a(dp432
aa(lp433
S'hHT_4j0b_bin5'
p434
a(dp435
aa(lp436
S'hHT_2j1b_bin5'
p437
a(dp438
aa(lp439
S'hHT_4j1b_bin5'
p440
a(dp441
aa(lp442
S'hHT_2j0b_bin6'
p443
a(dp444
aa(lp445
S'hHT_4j0b_bin6'
p446
a(dp447
aa(lp448
S'hHT_2j1b_bin6'
p449
a(dp450
aa(lp451
S'hHT_4j1b_bin6'
p452
a(dp453
aa(lp454
S'hHT_2j2b_bin1'
p455
a(dp456
aa(lp457
S'hHT_4j2b_bin1'
p458
a(dp459
aa(lp460
S'hHT_7j0b_bin1'
p461
a(dp462
aa(lp463
S'hHT_2j2b_bin2'
p464
a(dp465
aa(lp466
S'hHT_4j2b_bin2'
p467
a(dp468
aa(lp469
S'hHT_7j0b_bin2'
p470
a(dp471
aa(lp472
S'hHT_2j2b_bin3'
p473
a(dp474
aa(lp475
S'hHT_4j2b_bin3'
p476
a(dp477
aa(lp478
S'hHT_7j0b_bin3'
p479
a(dp480
aa(lp481
S'hHT_2j2b_bin4'
p482
a(dp483
aa(lp484
S'hHT_4j2b_bin4'
p485
a(dp486
aa(lp487
S'hHT_7j0b_bin4'
p488
a(dp489
aa(lp490
S'hHT_2j2b_bin5'
p491
a(dp492
aa(lp493
S'hHT_4j2b_bin5'
p494
a(dp495
aa(lp496
S'hHT_7j0b_bin5'
p497
a(dp498
aa(lp499
S'hHT_7j1b_bin1'
p500
a(dp501
aa(lp502
S'hHT_7j2b_bin1'
p503
a(dp504
aa(lp505
S'hHT_7j1b_bin2'
p506
a(dp507
aa(lp508
S'hHT_7j2b_bin2'
p509
a(dp510
aa(lp511
S'hHT_7j1b_bin3'
p512
a(dp513
aa(lp514
S'hHT_7j2b_bin3'
p515
a(dp516
aa(lp517
S'hHT_7j1b_bin4'
p518
a(dp519
aa(lp520
S'hHT_7j2b_bin4'
p521
a(dp522
aa(lp523
S'hHT_2j3b_bin1'
p524
a(dp525
aa(lp526
S'hHT_7j3b_bin1'
p527
a(dp528
aa(lp529
S'hHT_2j3b_bin2'
p530
a(dp531
aa(lp532
S'hHT_7j3b_bin2'
p533
a(dp534
aa(lp535
S'hHT_2j3b_bin3'
p536
a(dp537
aa(lp538
S'hHT_7j3b_bin3'
p539
a(dp540
aa(lp541
S'eHT_2j0b_bin1'
p542
a(dp543
aa(lp544
S'eHT_4j0b_bin1'
p545
a(dp546
aa(lp547
S'eHT_4j1b_bin1'
p548
a(dp549
aa(lp550
S'eHT_2j0b_bin2'
p551
a(dp552
aa(lp553
S'eHT_4j0b_bin2'
p554
a(dp555
aa(lp556
S'eHT_4j1b_bin2'
p557
a(dp558
aa(lp559
S'eHT_2j0b_bin3'
p560
a(dp561
aa(lp562
S'eHT_4j0b_bin3'
p563
a(dp564
aa(lp565
S'eHT_4j1b_bin3'
p566
a(dp567
aa(lp568
S'eHT_2j0b_bin4'
p569
a(dp570
aa(lp571
S'eHT_4j0b_bin4'
p572
a(dp573
aa(lp574
S'eHT_4j1b_bin4'
p575
a(dp576
aa(lp577
S'eHT_2j0b_bin5'
p578
a(dp579
aa(lp580
S'eHT_4j0b_bin5'
p581
a(dp582
aa(lp583
S'eHT_4j1b_bin5'
p584
a(dp585
aa(lp586
S'eHT_2j1b_bin1'
p587
a(dp588
aa(lp589
S'eHT_7j0b_bin1'
p590
a(dp591
aa(lp592
S'eHT_2j1b_bin2'
p593
a(dp594
aa(lp595
S'eHT_7j0b_bin2'
p596
a(dp597
aa(lp598
S'eHT_2j1b_bin3'
p599
a(dp600
aa(lp601
S'eHT_7j0b_bin3'
p602
a(dp603
aa(lp604
S'eHT_2j1b_bin4'
p605
a(dp606
aa(lp607
S'eHT_7j0b_bin4'
p608
a(dp609
aa(lp610
S'eHT_4j2b_bin1'
p611
a(dp612
aa(lp613
S'eHT_7j1b_bin1'
p614
a(dp615
aa(lp616
S'eHT_7j2b_bin1'
p617
a(dp618
aa(lp619
S'eHT_4j2b_bin2'
p620
a(dp621
aa(lp622
S'eHT_7j1b_bin2'
p623
a(dp624
aa(lp625
S'eHT_7j2b_bin2'
p626
a(dp627
aa(lp628
S'eHT_4j2b_bin3'
p629
a(dp630
aa(lp631
S'eHT_7j1b_bin3'
p632
a(dp633
aa(lp634
S'eHT_7j2b_bin3'
p635
a(dp636
aa(lp637
S'eHT_2j3b_bin1'
p638
a(dp639
aa(lp640
S'eHT_2j3b_bin2'
p641
a(dp642
aa(lp643
S'eHT_2j2b_bin1'
p644
a(dp645
aa(lp646
S'eHT_7j3b_bin1'
p647
a(dp648
aatp649
Rp650
aatp651
Rp652
.